#include <math.h>
#include <stdio.h>
#include <stdlib.h>
#include <string.h>
#include <iostream>
using namespace std;

int main()
{
    int n,i,j,k=0;               //i j???? k???????????
    cin>>n;
    int a[n];
    cin>>a[0];cout<<a[0];
    for(i=1;i<n;i++)
            {cin>>a[i];
             for(j=0;j<i;j++)
                   if(a[i]==a[j])k++;     //??????????????k??
             if(k==0)cout<<" "<<a[i];      //k==0????? 
             k=0;}                            //k?? 
    return 0;
}